target datalayout = "e-m:e-p270:32:32-p271:32:32-p272:64:64-i64:64-i128:128-f80:128-n8:16:32:64-S128"
target triple = "x86_64-pc-linux-gnu"

%struct.FT_Matrix_ = type { i64, i64, i64, i64 }
%struct.FT_FaceRec_ = type { i64, i64, i64, i64, i64, ptr, ptr, i32, ptr, i32, ptr, %struct.FT_Generic_, %struct.FT_BBox_, i16, i16, i16, i16, i16, i16, i16, i16, ptr, ptr, ptr, ptr, ptr, ptr, %struct.FT_ListRec_, %struct.FT_Generic_, ptr, ptr }
%struct.FT_BBox_ = type { i64, i64, i64, i64 }
%struct.FT_ListRec_ = type { ptr, ptr }
%struct.FT_Generic_ = type { ptr, ptr }
%struct.FT_SizeRec_ = type { ptr, %struct.FT_Generic_, %struct.FT_Size_Metrics_, ptr }
%struct.FT_Size_Metrics_ = type { i16, i16, i64, i64, i64, i64, i64, i64 }
%struct.FT_GlyphSlotRec_ = type { ptr, ptr, ptr, i32, %struct.FT_Generic_, %struct.FT_Glyph_Metrics_, i64, i64, %struct.FT_Vector_, i32, %struct.FT_Bitmap_, i32, i32, %struct.FT_Outline_, i32, ptr, ptr, i64, i64, i64, ptr, ptr }
%struct.FT_Glyph_Metrics_ = type { i64, i64, i64, i64, i64, i64, i64, i64 }
%struct.FT_Vector_ = type { i64, i64 }
%struct.FT_Bitmap_ = type { i32, i32, i32, ptr, i16, i8, i8, ptr }
%struct.FT_Outline_ = type { i16, i16, ptr, ptr, ptr, i32 }

; Function Attrs: nounwind uwtable
define internal void @GlyphSlot_Embolden(ptr noundef %0, ptr noundef byval(%struct.FT_Matrix_) align 8 %1) #0 {
  %3 = alloca ptr, align 8
  %4 = alloca i64, align 8
  store ptr %0, ptr %3, align 8
  store i64 0, ptr %4, align 8
  %5 = load ptr, ptr %3, align 8
  %6 = icmp ne ptr %5, null
  br i1 %6, label %7, label %24

7:                                                ; preds = %2
  %8 = load ptr, ptr %3, align 8
  %9 = getelementptr inbounds %struct.FT_GlyphSlotRec_, ptr %8, i32 0, i32 9
  %10 = load i32, ptr %9, align 8
  %11 = icmp ne i32 %10, 1869968492
  br i1 %11, label %24, label %12

12:                                               ; preds = %7
  %13 = load ptr, ptr %3, align 8
  %14 = getelementptr inbounds %struct.FT_GlyphSlotRec_, ptr %13, i32 0, i32 5
  %15 = getelementptr inbounds %struct.FT_Glyph_Metrics_, ptr %14, i32 0, i32 0
  %16 = load i64, ptr %15, align 8
  %17 = icmp eq i64 %16, 0
  br i1 %17, label %24, label %18

18:                                               ; preds = %12
  %19 = load ptr, ptr %3, align 8
  %20 = getelementptr inbounds %struct.FT_GlyphSlotRec_, ptr %19, i32 0, i32 5
  %21 = getelementptr inbounds %struct.FT_Glyph_Metrics_, ptr %20, i32 0, i32 1
  %22 = load i64, ptr %21, align 8
  %23 = icmp eq i64 %22, 0
  br i1 %23, label %24, label %25

24:                                               ; preds = %18, %12, %7, %2
  br label %120

25:                                               ; preds = %18
  %26 = load ptr, ptr %3, align 8
  %27 = getelementptr inbounds %struct.FT_GlyphSlotRec_, ptr %26, i32 0, i32 1
  %28 = load ptr, ptr %27, align 8
  %29 = getelementptr inbounds %struct.FT_FaceRec_, ptr %28, i32 0, i32 13
  %30 = load i16, ptr %29, align 8
  %31 = zext i16 %30 to i64
  %32 = load ptr, ptr %3, align 8
  %33 = getelementptr inbounds %struct.FT_GlyphSlotRec_, ptr %32, i32 0, i32 1
  %34 = load ptr, ptr %33, align 8
  %35 = getelementptr inbounds %struct.FT_FaceRec_, ptr %34, i32 0, i32 22
  %36 = load ptr, ptr %35, align 8
  %37 = getelementptr inbounds %struct.FT_SizeRec_, ptr %36, i32 0, i32 2
  %38 = getelementptr inbounds %struct.FT_Size_Metrics_, ptr %37, i32 0, i32 3
  %39 = load i64, ptr %38, align 8
  %40 = call i64 @FT_MulFix(i64 noundef %31, i64 noundef %39)
  %41 = sdiv i64 %40, 32
  store i64 %41, ptr %4, align 8
  %42 = load ptr, ptr %3, align 8
  %43 = getelementptr inbounds %struct.FT_GlyphSlotRec_, ptr %42, i32 0, i32 13
  %44 = load i64, ptr %4, align 8
  %45 = call i32 @FT_Outline_Embolden(ptr noundef %43, i64 noundef %44)
  %46 = load i64, ptr %4, align 8
  %47 = load ptr, ptr %3, align 8
  %48 = getelementptr inbounds %struct.FT_GlyphSlotRec_, ptr %47, i32 0, i32 5
  %49 = getelementptr inbounds %struct.FT_Glyph_Metrics_, ptr %48, i32 0, i32 0
  %50 = load i64, ptr %49, align 8
  %51 = add nsw i64 %50, %46
  store i64 %51, ptr %49, align 8
  %52 = load i64, ptr %4, align 8
  %53 = load ptr, ptr %3, align 8
  %54 = getelementptr inbounds %struct.FT_GlyphSlotRec_, ptr %53, i32 0, i32 5
  %55 = getelementptr inbounds %struct.FT_Glyph_Metrics_, ptr %54, i32 0, i32 1
  %56 = load i64, ptr %55, align 8
  %57 = add nsw i64 %56, %52
  store i64 %57, ptr %55, align 8
  %58 = load ptr, ptr %3, align 8
  %59 = getelementptr inbounds %struct.FT_GlyphSlotRec_, ptr %58, i32 0, i32 6
  %60 = load i64, ptr %59, align 8
  %61 = icmp eq i64 %60, 0
  br i1 %61, label %62, label %63

62:                                               ; preds = %25
  br label %120

63:                                               ; preds = %25
  %64 = load ptr, ptr %3, align 8
  %65 = getelementptr inbounds %struct.FT_GlyphSlotRec_, ptr %64, i32 0, i32 8
  %66 = getelementptr inbounds %struct.FT_Vector_, ptr %65, i32 0, i32 0
  %67 = load i64, ptr %66, align 8
  %68 = icmp ne i64 %67, 0
  br i1 %68, label %69, label %79

69:                                               ; preds = %63
  %70 = load i64, ptr %4, align 8
  %71 = getelementptr inbounds %struct.FT_Matrix_, ptr %1, i32 0, i32 0
  %72 = load i64, ptr %71, align 8
  %73 = call i64 @FT_MulFix(i64 noundef %70, i64 noundef %72)
  %74 = load ptr, ptr %3, align 8
  %75 = getelementptr inbounds %struct.FT_GlyphSlotRec_, ptr %74, i32 0, i32 8
  %76 = getelementptr inbounds %struct.FT_Vector_, ptr %75, i32 0, i32 0
  %77 = load i64, ptr %76, align 8
  %78 = add nsw i64 %77, %73
  store i64 %78, ptr %76, align 8
  br label %79

79:                                               ; preds = %69, %63
  %80 = load ptr, ptr %3, align 8
  %81 = getelementptr inbounds %struct.FT_GlyphSlotRec_, ptr %80, i32 0, i32 8
  %82 = getelementptr inbounds %struct.FT_Vector_, ptr %81, i32 0, i32 1
  %83 = load i64, ptr %82, align 8
  %84 = icmp ne i64 %83, 0
  br i1 %84, label %85, label %95

85:                                               ; preds = %79
  %86 = load i64, ptr %4, align 8
  %87 = getelementptr inbounds %struct.FT_Matrix_, ptr %1, i32 0, i32 2
  %88 = load i64, ptr %87, align 8
  %89 = call i64 @FT_MulFix(i64 noundef %86, i64 noundef %88)
  %90 = load ptr, ptr %3, align 8
  %91 = getelementptr inbounds %struct.FT_GlyphSlotRec_, ptr %90, i32 0, i32 8
  %92 = getelementptr inbounds %struct.FT_Vector_, ptr %91, i32 0, i32 1
  %93 = load i64, ptr %92, align 8
  %94 = add nsw i64 %93, %89
  store i64 %94, ptr %92, align 8
  br label %95

95:                                               ; preds = %85, %79
  %96 = load i64, ptr %4, align 8
  %97 = shl i64 %96, 10
  %98 = load ptr, ptr %3, align 8
  %99 = getelementptr inbounds %struct.FT_GlyphSlotRec_, ptr %98, i32 0, i32 6
  %100 = load i64, ptr %99, align 8
  %101 = add nsw i64 %100, %97
  store i64 %101, ptr %99, align 8
  %102 = load i64, ptr %4, align 8
  %103 = load ptr, ptr %3, align 8
  %104 = getelementptr inbounds %struct.FT_GlyphSlotRec_, ptr %103, i32 0, i32 5
  %105 = getelementptr inbounds %struct.FT_Glyph_Metrics_, ptr %104, i32 0, i32 4
  %106 = load i64, ptr %105, align 8
  %107 = add nsw i64 %106, %102
  store i64 %107, ptr %105, align 8
  %108 = load i64, ptr %4, align 8
  %109 = load ptr, ptr %3, align 8
  %110 = getelementptr inbounds %struct.FT_GlyphSlotRec_, ptr %109, i32 0, i32 5
  %111 = getelementptr inbounds %struct.FT_Glyph_Metrics_, ptr %110, i32 0, i32 7
  %112 = load i64, ptr %111, align 8
  %113 = add nsw i64 %112, %108
  store i64 %113, ptr %111, align 8
  %114 = load i64, ptr %4, align 8
  %115 = load ptr, ptr %3, align 8
  %116 = getelementptr inbounds %struct.FT_GlyphSlotRec_, ptr %115, i32 0, i32 5
  %117 = getelementptr inbounds %struct.FT_Glyph_Metrics_, ptr %116, i32 0, i32 3
  %118 = load i64, ptr %117, align 8
  %119 = add nsw i64 %118, %114
  store i64 %119, ptr %117, align 8
  br label %120

120:                                              ; preds = %95, %62, %24
  ret void
}