; Function Attrs: nounwind uwtable
define internal fastcc void @GlyphSlot_Embolden(ptr noundef %0, i64 %.0.val, i64 %.16.val) unnamed_addr #0 {
  %.not = icmp eq ptr %0, null
  br i1 %.not, label %58, label %2

2:                                                ; preds = %1
  %3 = getelementptr inbounds i8, ptr %0, i64 144
  %4 = load i32, ptr %3, align 8
  %.not26 = icmp eq i32 %4, 1869968492
  br i1 %.not26, label %5, label %58

5:                                                ; preds = %2
  %6 = getelementptr inbounds i8, ptr %0, i64 48
  %7 = load i64, ptr %6, align 8
  %8 = icmp eq i64 %7, 0
  br i1 %8, label %58, label %9

9:                                                ; preds = %5
  %10 = getelementptr inbounds i8, ptr %0, i64 56
  %11 = load i64, ptr %10, align 8
  %12 = icmp eq i64 %11, 0
  br i1 %12, label %58, label %13

13:                                               ; preds = %9
  %14 = getelementptr inbounds i8, ptr %0, i64 8
  %15 = load ptr, ptr %14, align 8
  %16 = getelementptr inbounds i8, ptr %15, i64 136
  %17 = load i16, ptr %16, align 8
  %18 = zext i16 %17 to i64
  %19 = getelementptr inbounds i8, ptr %15, i64 160
  %20 = load ptr, ptr %19, align 8
  %21 = getelementptr inbounds i8, ptr %20, i64 40
  %22 = load i64, ptr %21, align 8
  %23 = tail call i64 @FT_MulFix(i64 noundef %18, i64 noundef %22) #19
  %24 = sdiv i64 %23, 32
  %25 = getelementptr inbounds i8, ptr %0, i64 200
  %26 = tail call i32 @FT_Outline_Embolden(ptr noundef nonnull %25, i64 noundef %24) #19
  %27 = load <2 x i64>, ptr %6, align 8
  %28 = insertelement <2 x i64> poison, i64 %24, i64 0
  %29 = shufflevector <2 x i64> %28, <2 x i64> poison, <2 x i32> zeroinitializer
  %30 = add nsw <2 x i64> %27, %29
  store <2 x i64> %30, ptr %6, align 8
  %31 = getelementptr inbounds i8, ptr %0, i64 112
  %32 = load i64, ptr %31, align 8
  %33 = icmp eq i64 %32, 0
  br i1 %33, label %58, label %34

34:                                               ; preds = %13
  %35 = getelementptr inbounds i8, ptr %0, i64 128
  %36 = load i64, ptr %35, align 8
  %.not27 = icmp eq i64 %36, 0
  br i1 %.not27, label %41, label %37

37:                                               ; preds = %34
  %38 = tail call i64 @FT_MulFix(i64 noundef %24, i64 noundef %.0.val) #19
  %39 = load i64, ptr %35, align 8
  %40 = add nsw i64 %39, %38
  store i64 %40, ptr %35, align 8
  br label %41

41:                                               ; preds = %37, %34
  %42 = getelementptr inbounds i8, ptr %0, i64 136
  %43 = load i64, ptr %42, align 8
  %.not28 = icmp eq i64 %43, 0
  br i1 %.not28, label %48, label %44

44:                                               ; preds = %41
  %45 = tail call i64 @FT_MulFix(i64 noundef %24, i64 noundef %.16.val) #19
  %46 = load i64, ptr %42, align 8
  %47 = add nsw i64 %46, %45
  store i64 %47, ptr %42, align 8
  br label %48

48:                                               ; preds = %44, %41
  %49 = shl i64 %24, 10
  %50 = load i64, ptr %31, align 8
  %51 = add nsw i64 %50, %49
  store i64 %51, ptr %31, align 8
  %52 = getelementptr inbounds i8, ptr %0, i64 104
  %53 = load i64, ptr %52, align 8
  %54 = add nsw i64 %53, %24
  store i64 %54, ptr %52, align 8
  %55 = getelementptr inbounds i8, ptr %0, i64 72
  %56 = load <2 x i64>, ptr %55, align 8
  %57 = add nsw <2 x i64> %56, %29
  store <2 x i64> %57, ptr %55, align 8
  br label %58

58:                                               ; preds = %13, %1, %2, %5, %9, %48
  ret void
}